; Function Attrs: nounwind sspstrong uwtable
define dso_local void @virtio_bus_device_unplugged(ptr noundef %vdev) local_unnamed_addr #0 {
entry:
  %call.i = tail call ptr @object_dynamic_cast_assert(ptr noundef %vdev, ptr noundef nonnull @.str.8, ptr noundef nonnull @.str.9, i32 noundef 77, ptr noundef nonnull @__func__.DEVICE) #5
  %call1 = tail call ptr @qdev_get_parent_bus(ptr noundef %call.i) #5
  %call.i4 = tail call ptr @object_dynamic_cast_assert(ptr noundef %call1, ptr noundef nonnull @.str.10, ptr noundef nonnull @.str.9, i32 noundef 316, ptr noundef nonnull @__func__.BUS) #5
  %call.i5 = tail call ptr @object_get_class(ptr noundef %call.i4) #5
  %call1.i = tail call ptr @object_class_dynamic_cast_assert(ptr noundef %call.i5, ptr noundef nonnull @.str.11, ptr noundef nonnull @.str.12, i32 noundef 36, ptr noundef nonnull @__func__.VIRTIO_BUS_GET_CLASS) #5
  %cmp.not = icmp eq ptr %vdev, null
  br i1 %cmp.not, label %if.end7, label %if.then

if.then:                                          ; preds = %entry
  %device_unplugged = getelementptr inbounds nuw i8, ptr %call1.i, i64 280
  %0 = load ptr, ptr %device_unplugged, align 8
  %cmp4.not = icmp eq ptr %0, null
  br i1 %cmp4.not, label %if.end7, label %if.then5

if.then5:                                         ; preds = %if.then
  %parent = getelementptr inbounds nuw i8, ptr %call.i4, i64 40
  %1 = load ptr, ptr %parent, align 8
  tail call void %0(ptr noundef %1) #5
  br label %if.end7

if.end7:                                          ; preds = %if.then, %if.then5, %entry
  ret void
}